target datalayout = "e-m:e-p270:32:32-p271:32:32-p272:64:64-i64:64-i128:128-f80:128-n8:16:32:64-S128"
target triple = "x86_64-pc-linux-gnu"

%union._GMutex = type { ptr }
%struct.ExecCount = type { i64, ptr, i32, i64 }
%struct.qemu_plugin_u64 = type { ptr, i64 }

@do_inline = internal global i8 0, align 1
@hotblocks = internal global ptr null, align 8
@lock = internal global %union._GMutex zeroinitializer, align 8

; Function Attrs: nounwind sspstrong uwtable
define internal void @vcpu_tb_trans(i64 noundef %0, ptr noundef %1) #0 {
  %3 = alloca i64, align 8
  %4 = alloca ptr, align 8
  %5 = alloca ptr, align 8
  %6 = alloca i64, align 8
  %7 = alloca i64, align 8
  %8 = alloca %struct.ExecCount, align 8
  %9 = alloca i64, align 8
  %10 = alloca i64, align 8
  %11 = alloca ptr, align 8
  %12 = alloca ptr, align 8
  %13 = alloca %struct.qemu_plugin_u64, align 8
  store i64 %0, ptr %3, align 8
  store ptr %1, ptr %4, align 8
  call void @llvm.lifetime.start.p0(i64 8, ptr %5) #9
  store ptr null, ptr %5, align 8, !annotation !5
  call void @llvm.lifetime.start.p0(i64 8, ptr %6) #9
  %14 = load ptr, ptr %4, align 8
  %15 = call i64 @qemu_plugin_tb_vaddr(ptr noundef %14)
  store i64 %15, ptr %6, align 8
  call void @llvm.lifetime.start.p0(i64 8, ptr %7) #9
  %16 = load ptr, ptr %4, align 8
  %17 = call i64 @qemu_plugin_tb_n_insns(ptr noundef %16)
  store i64 %17, ptr %7, align 8
  call void @g_mutex_lock(ptr noundef @lock)
  call void @llvm.lifetime.start.p0(i64 32, ptr %8) #9
  call void @llvm.memset.p0.i64(ptr align 8 %8, i8 0, i64 32, i1 false), !annotation !5
  %18 = load i64, ptr %6, align 8
  %19 = getelementptr inbounds nuw %struct.ExecCount, ptr %8, i32 0, i32 0
  store i64 %18, ptr %19, align 8
  %20 = load i64, ptr %7, align 8
  %21 = getelementptr inbounds nuw %struct.ExecCount, ptr %8, i32 0, i32 3
  store i64 %20, ptr %21, align 8
  %22 = load ptr, ptr @hotblocks, align 8
  %23 = call ptr @g_hash_table_lookup(ptr noundef %22, ptr noundef %8)
  store ptr %23, ptr %5, align 8
  call void @llvm.lifetime.end.p0(i64 32, ptr %8) #9
  %24 = load ptr, ptr %5, align 8
  %25 = icmp ne ptr %24, null
  br i1 %25, label %26, label %31

26:                                               ; preds = %2
  %27 = load ptr, ptr %5, align 8
  %28 = getelementptr inbounds nuw %struct.ExecCount, ptr %27, i32 0, i32 2
  %29 = load i32, ptr %28, align 8
  %30 = add i32 %29, 1
  store i32 %30, ptr %28, align 8
  br label %76

31:                                               ; preds = %2
  call void @llvm.lifetime.start.p0(i64 8, ptr %9) #9
  store i64 1, ptr %9, align 8
  call void @llvm.lifetime.start.p0(i64 8, ptr %10) #9
  store i64 32, ptr %10, align 8
  call void @llvm.lifetime.start.p0(i64 8, ptr %11) #9
  store ptr null, ptr %11, align 8, !annotation !5
  %32 = load i64, ptr %10, align 8
  %33 = icmp eq i64 %32, 1
  br i1 %33, label %34, label %37

34:                                               ; preds = %31
  %35 = load i64, ptr %9, align 8
  %36 = call noalias ptr @g_malloc0(i64 noundef %35) #10
  store ptr %36, ptr %11, align 8
  br label %58

37:                                               ; preds = %31
  %38 = load i64, ptr %9, align 8
  %39 = call i1 @llvm.is.constant.i64(i64 %38)
  br i1 %39, label %40, label %53

40:                                               ; preds = %37
  %41 = load i64, ptr %10, align 8
  %42 = icmp eq i64 %41, 0
  br i1 %42, label %48, label %43

43:                                               ; preds = %40
  %44 = load i64, ptr %9, align 8
  %45 = load i64, ptr %10, align 8
  %46 = udiv i64 -1, %45
  %47 = icmp ule i64 %44, %46
  br i1 %47, label %48, label %53

48:                                               ; preds = %43, %40
  %49 = load i64, ptr %9, align 8
  %50 = load i64, ptr %10, align 8
  %51 = mul i64 %49, %50
  %52 = call noalias ptr @g_malloc0(i64 noundef %51) #10
  store ptr %52, ptr %11, align 8
  br label %57

53:                                               ; preds = %43, %37
  %54 = load i64, ptr %9, align 8
  %55 = load i64, ptr %10, align 8
  %56 = call noalias ptr @g_malloc0_n(i64 noundef %54, i64 noundef %55) #11
  store ptr %56, ptr %11, align 8
  br label %57

57:                                               ; preds = %53, %48
  br label %58

58:                                               ; preds = %57, %34
  %59 = load ptr, ptr %11, align 8
  store ptr %59, ptr %12, align 8
  call void @llvm.lifetime.end.p0(i64 8, ptr %11) #9
  call void @llvm.lifetime.end.p0(i64 8, ptr %10) #9
  call void @llvm.lifetime.end.p0(i64 8, ptr %9) #9
  %60 = load ptr, ptr %12, align 8
  store ptr %60, ptr %5, align 8
  %61 = load i64, ptr %6, align 8
  %62 = load ptr, ptr %5, align 8
  %63 = getelementptr inbounds nuw %struct.ExecCount, ptr %62, i32 0, i32 0
  store i64 %61, ptr %63, align 8
  %64 = load ptr, ptr %5, align 8
  %65 = getelementptr inbounds nuw %struct.ExecCount, ptr %64, i32 0, i32 2
  store i32 1, ptr %65, align 8
  %66 = load i64, ptr %7, align 8
  %67 = load ptr, ptr %5, align 8
  %68 = getelementptr inbounds nuw %struct.ExecCount, ptr %67, i32 0, i32 3
  store i64 %66, ptr %68, align 8
  %69 = call ptr @qemu_plugin_scoreboard_new(i64 noundef 8)
  %70 = load ptr, ptr %5, align 8
  %71 = getelementptr inbounds nuw %struct.ExecCount, ptr %70, i32 0, i32 1
  store ptr %69, ptr %71, align 8
  %72 = load ptr, ptr @hotblocks, align 8
  %73 = load ptr, ptr %5, align 8
  %74 = load ptr, ptr %5, align 8
  %75 = call i32 @g_hash_table_insert(ptr noundef %72, ptr noundef %73, ptr noundef %74)
  br label %76

76:                                               ; preds = %58, %26
  call void @g_mutex_unlock(ptr noundef @lock)
  %77 = load i8, ptr @do_inline, align 1, !range !6, !noundef !7
  %78 = trunc i8 %77 to i1
  br i1 %78, label %79, label %90

79:                                               ; preds = %76
  %80 = load ptr, ptr %4, align 8
  %81 = getelementptr inbounds nuw %struct.qemu_plugin_u64, ptr %13, i32 0, i32 0
  %82 = load ptr, ptr %5, align 8
  %83 = getelementptr inbounds nuw %struct.ExecCount, ptr %82, i32 0, i32 1
  %84 = load ptr, ptr %83, align 8
  store ptr %84, ptr %81, align 8
  %85 = getelementptr inbounds nuw %struct.qemu_plugin_u64, ptr %13, i32 0, i32 1
  store i64 0, ptr %85, align 8
  %86 = getelementptr inbounds nuw { ptr, i64 }, ptr %13, i32 0, i32 0
  %87 = load ptr, ptr %86, align 8
  %88 = getelementptr inbounds nuw { ptr, i64 }, ptr %13, i32 0, i32 1
  %89 = load i64, ptr %88, align 8
  call void @qemu_plugin_register_vcpu_tb_exec_inline_per_vcpu(ptr noundef %80, i32 noundef 0, ptr %87, i64 %89, i64 noundef 1)
  br label %93

90:                                               ; preds = %76
  %91 = load ptr, ptr %4, align 8
  %92 = load ptr, ptr %5, align 8
  call void @qemu_plugin_register_vcpu_tb_exec_cb(ptr noundef %91, ptr noundef @vcpu_tb_exec, i32 noundef 0, ptr noundef %92)
  br label %93

93:                                               ; preds = %90, %79
  call void @llvm.lifetime.end.p0(i64 8, ptr %7) #9
  call void @llvm.lifetime.end.p0(i64 8, ptr %6) #9
  call void @llvm.lifetime.end.p0(i64 8, ptr %5) #9
  ret void
}