; Function Attrs: nounwind sspstrong uwtable
define internal void @vcpu_tb_trans(i64 %0, ptr noundef %1) #0 {
  %3 = alloca %struct.ExecCount, align 8
  %4 = tail call i64 @qemu_plugin_tb_vaddr(ptr noundef %1) #7
  %5 = tail call i64 @qemu_plugin_tb_n_insns(ptr noundef %1) #7
  tail call void @g_mutex_lock(ptr noundef nonnull @lock) #7
  call void @llvm.lifetime.start.p0(i64 32, ptr nonnull %3) #7
  %6 = getelementptr inbounds nuw i8, ptr %3, i64 8
  call void @llvm.memset.p0.i64(ptr noundef nonnull align 8 dereferenceable(32) %6, i8 0, i64 16, i1 false), !annotation !5
  store i64 %4, ptr %3, align 8
  %7 = getelementptr inbounds nuw i8, ptr %3, i64 24
  store i64 %5, ptr %7, align 8
  %8 = load ptr, ptr @hotblocks, align 8
  %9 = call ptr @g_hash_table_lookup(ptr noundef %8, ptr noundef nonnull %3) #7
  call void @llvm.lifetime.end.p0(i64 32, ptr nonnull %3) #7
  %.not = icmp eq ptr %9, null
  br i1 %.not, label %14, label %10

10:                                               ; preds = %2
  %11 = getelementptr inbounds nuw i8, ptr %9, i64 16
  %12 = load i32, ptr %11, align 8
  %13 = add i32 %12, 1
  store i32 %13, ptr %11, align 8
  br label %22

14:                                               ; preds = %2
  %15 = call noalias dereferenceable_or_null(32) ptr @g_malloc0(i64 noundef 32) #9
  store i64 %4, ptr %15, align 8
  %16 = getelementptr inbounds nuw i8, ptr %15, i64 16
  store i32 1, ptr %16, align 8
  %17 = getelementptr inbounds nuw i8, ptr %15, i64 24
  store i64 %5, ptr %17, align 8
  %18 = call ptr @qemu_plugin_scoreboard_new(i64 noundef 8) #7
  %19 = getelementptr inbounds nuw i8, ptr %15, i64 8
  store ptr %18, ptr %19, align 8
  %20 = load ptr, ptr @hotblocks, align 8
  %21 = call i32 @g_hash_table_insert(ptr noundef %20, ptr noundef nonnull %15, ptr noundef nonnull %15) #7
  br label %22

22:                                               ; preds = %14, %10
  %.0 = phi ptr [ %9, %10 ], [ %15, %14 ]
  call void @g_mutex_unlock(ptr noundef nonnull @lock) #7
  %23 = load i8, ptr @do_inline, align 1, !range !6, !noundef !7
  %24 = trunc nuw i8 %23 to i1
  br i1 %24, label %25, label %28

25:                                               ; preds = %22
  %26 = getelementptr inbounds nuw i8, ptr %.0, i64 8
  %27 = load ptr, ptr %26, align 8
  call void @qemu_plugin_register_vcpu_tb_exec_inline_per_vcpu(ptr noundef %1, i32 noundef 0, ptr %27, i64 0, i64 noundef 1) #7
  br label %29

28:                                               ; preds = %22
  call void @qemu_plugin_register_vcpu_tb_exec_cb(ptr noundef %1, ptr noundef nonnull @vcpu_tb_exec, i32 noundef 0, ptr noundef nonnull %.0) #7
  br label %29

29:                                               ; preds = %28, %25
  ret void
}